target datalayout = "e-m:e-p270:32:32-p271:32:32-p272:64:64-i64:64-i128:128-f80:128-n8:16:32:64-S128"
target triple = "x86_64-pc-linux-gnu"

%"class.std::locale" = type { ptr }
%"class.std::ios_base" = type { ptr, i64, i64, i32, i32, i32, ptr, %"struct.std::ios_base::_Words", [8 x %"struct.std::ios_base::_Words"], i32, ptr, %"class.std::locale" }
%"struct.std::ios_base::_Words" = type { ptr, i64 }
%"struct.google::logging::internal::LogMessageVoidify" = type { i8 }
%"class.google::LogMessageFatal" = type { %"class.google::LogMessage" }
%"class.google::LogMessage" = type { ptr, ptr, %"struct.google::LogMessageTime" }
%"struct.google::LogMessageTime" = type { %struct.tm, %"class.std::chrono::time_point", %"class.std::chrono::duration.0", %"class.std::chrono::duration.1" }
%struct.tm = type { i32, i32, i32, i32, i32, i32, i32, i32, i32, i64, ptr }
%"class.std::chrono::time_point" = type { %"class.std::chrono::duration" }
%"class.std::chrono::duration" = type { i64 }
%"class.std::chrono::duration.0" = type { i64 }
%"class.std::chrono::duration.1" = type { i64 }

@_ZN6googleL31g_program_invocation_short_nameE = internal global ptr null, align 8
@.str.3 = private unnamed_addr constant [104 x i8] c"generated/home/dtcxzyw/WorkSpace/Projects/compilers/llvm-opt-benchmark/bench/glog/glog/src/utilities.cc\00", align 1
@.str.6 = private unnamed_addr constant [44 x i8] c"Check failed: IsGoogleLoggingInitialized() \00", align 1
@.str.7 = private unnamed_addr constant [78 x i8] c"You called ShutdownGoogleLogging() without calling InitGoogleLogging() first!\00", align 1

; Function Attrs: inlinehint mustprogress nounwind uwtable
define linkonce_odr noundef i32 @_ZStorSt12_Ios_IostateS_(i32 noundef %0, i32 noundef %1) #14 comdat {
  %3 = alloca i32, align 4
  %4 = alloca i32, align 4
  store i32 %0, ptr %3, align 4, !tbaa !113
  store i32 %1, ptr %4, align 4, !tbaa !113
  %5 = load i32, ptr %3, align 4, !tbaa !113
  %6 = load i32, ptr %4, align 4, !tbaa !113
  %7 = or i32 %5, %6
  ret i32 %7
}

; Function Attrs: mustprogress nounwind uwtable
define available_externally noundef i32 @_ZNKSt9basic_iosIcSt11char_traitsIcEE7rdstateEv(ptr noundef nonnull align 8 dereferenceable(264) %0) #2 align 2 {
  %2 = alloca ptr, align 8
  store ptr %0, ptr %2, align 8, !tbaa !31
  %3 = load ptr, ptr %2, align 8
  %4 = getelementptr inbounds nuw %"class.std::ios_base", ptr %3, i32 0, i32 5
  %5 = load i32, ptr %4, align 8, !tbaa !114
  ret i32 %5
}

; Function Attrs: mustprogress nounwind uwtable
define linkonce_odr hidden noundef i64 @_ZNSt11char_traitsIcE6lengthEPKc(ptr noundef %0) #2 comdat align 2 {
  %2 = alloca ptr, align 8
  store ptr %0, ptr %2, align 8, !tbaa !9
  %3 = load ptr, ptr %2, align 8, !tbaa !9
  %4 = call i64 @strlen(ptr noundef %3) #7
  ret i64 %4
}

; Function Attrs: mustprogress uwtable
define available_externally void @_ZNSt9basic_iosIcSt11char_traitsIcEE8setstateESt12_Ios_Iostate(ptr noundef nonnull align 8 dereferenceable(264) %0, i32 noundef %1) #0 align 2 {
  %3 = alloca ptr, align 8
  %4 = alloca i32, align 4
  store ptr %0, ptr %3, align 8, !tbaa !31
  store i32 %1, ptr %4, align 4, !tbaa !113
  %5 = load ptr, ptr %3, align 8
  %6 = call noundef i32 @_ZNKSt9basic_iosIcSt11char_traitsIcEE7rdstateEv(ptr noundef nonnull align 8 dereferenceable(264) %5)
  %7 = load i32, ptr %4, align 4, !tbaa !113
  %8 = call noundef i32 @_ZStorSt12_Ios_IostateS_(i32 noundef %6, i32 noundef %7)
  call void @_ZNSt9basic_iosIcSt11char_traitsIcEE5clearESt12_Ios_Iostate(ptr noundef nonnull align 8 dereferenceable(264) %5, i32 noundef %8)
  ret void
}

; Function Attrs: mustprogress nounwind uwtable
define linkonce_odr hidden void @_ZNK6google7logging8internal17LogMessageVoidifyanERSo(ptr noundef nonnull align 1 dereferenceable(1) %0, ptr noundef nonnull align 8 dereferenceable(8) %1) #2 comdat align 2 {
  %3 = alloca ptr, align 8
  %4 = alloca ptr, align 8
  store ptr %0, ptr %3, align 8, !tbaa !65
  store ptr %1, ptr %4, align 8, !tbaa !25
  ret void
}

; Function Attrs: inlinehint mustprogress uwtable
define available_externally noundef nonnull align 8 dereferenceable(8) ptr @_ZStlsISt11char_traitsIcEERSt13basic_ostreamIcT_ES5_PKc(ptr noundef nonnull align 8 dereferenceable(8) %0, ptr noundef %1) #9 {
  %3 = alloca ptr, align 8
  %4 = alloca ptr, align 8
  store ptr %0, ptr %3, align 8, !tbaa !25
  store ptr %1, ptr %4, align 8, !tbaa !9
  %5 = load ptr, ptr %4, align 8, !tbaa !9
  %6 = icmp ne ptr %5, null
  br i1 %6, label %13, label %7

7:                                                ; preds = %2
  %8 = load ptr, ptr %3, align 8, !tbaa !25
  %9 = load ptr, ptr %8, align 8, !tbaa !15
  %10 = getelementptr i8, ptr %9, i64 -24
  %11 = load i64, ptr %10, align 8
  %12 = getelementptr inbounds i8, ptr %8, i64 %11
  call void @_ZNSt9basic_iosIcSt11char_traitsIcEE8setstateESt12_Ios_Iostate(ptr noundef nonnull align 8 dereferenceable(264) %12, i32 noundef 1)
  br label %19

13:                                               ; preds = %2
  %14 = load ptr, ptr %3, align 8, !tbaa !25
  %15 = load ptr, ptr %4, align 8, !tbaa !9
  %16 = load ptr, ptr %4, align 8, !tbaa !9
  %17 = call noundef i64 @_ZNSt11char_traitsIcE6lengthEPKc(ptr noundef %16)
  %18 = call noundef nonnull align 8 dereferenceable(8) ptr @_ZSt16__ostream_insertIcSt11char_traitsIcEERSt13basic_ostreamIT_T0_ES6_PKS3_l(ptr noundef nonnull align 8 dereferenceable(8) %14, ptr noundef %15, i64 noundef %17)
  br label %19

19:                                               ; preds = %13, %7
  %20 = load ptr, ptr %3, align 8, !tbaa !25
  ret ptr %20
}

; Function Attrs: mustprogress nounwind uwtable
define noundef zeroext i1 @_ZN6google26IsGoogleLoggingInitializedEv() #2 {
  %1 = load ptr, ptr @_ZN6googleL31g_program_invocation_short_nameE, align 8, !tbaa !9
  %2 = icmp ne ptr %1, null
  ret i1 %2
}

; Function Attrs: mustprogress uwtable
define hidden void @_ZN6google24glog_internal_namespace_30ShutdownGoogleLoggingUtilitiesEv() #0 personality ptr @__gxx_personality_v0 {
  %1 = alloca %"struct.google::logging::internal::LogMessageVoidify", align 1
  %2 = alloca %"class.google::LogMessageFatal", align 8
  %3 = alloca i1, align 1
  %4 = alloca i1, align 1
  %5 = alloca ptr, align 8
  %6 = alloca i32, align 4
  %7 = call noundef zeroext i1 @_ZN6google26IsGoogleLoggingInitializedEv()
  %8 = xor i1 %7, true
  %9 = zext i1 %8 to i64
  %10 = call i64 @llvm.expect.i64(i64 %9, i64 0)
  %11 = icmp ne i64 %10, 0
  call void @llvm.lifetime.start.p0(i64 1, ptr %1) #7
  store i1 false, ptr %3, align 1
  store i1 false, ptr %4, align 1
  br i1 %11, label %13, label %12

12:                                               ; preds = %0
  br label %20

13:                                               ; preds = %0
  call void @llvm.lifetime.start.p0(i64 96, ptr %2) #7
  store i1 true, ptr %3, align 1
  call void @_ZN6google15LogMessageFatalC1EPKci(ptr noundef nonnull align 8 dereferenceable(96) %2, ptr noundef @.str.3, i32 noundef 310)
  store i1 true, ptr %4, align 1
  %14 = invoke noundef nonnull align 8 dereferenceable(8) ptr @_ZN6google10LogMessage6streamEv(ptr noundef nonnull align 8 dereferenceable(96) %2)
          to label %15 unwind label %23

15:                                               ; preds = %13
  %16 = invoke noundef nonnull align 8 dereferenceable(8) ptr @_ZStlsISt11char_traitsIcEERSt13basic_ostreamIcT_ES5_PKc(ptr noundef nonnull align 8 dereferenceable(8) %14, ptr noundef @.str.6)
          to label %17 unwind label %23

17:                                               ; preds = %15
  %18 = invoke noundef nonnull align 8 dereferenceable(8) ptr @_ZStlsISt11char_traitsIcEERSt13basic_ostreamIcT_ES5_PKc(ptr noundef nonnull align 8 dereferenceable(8) %16, ptr noundef @.str.7)
          to label %19 unwind label %23

19:                                               ; preds = %17
  call void @_ZNK6google7logging8internal17LogMessageVoidifyanERSo(ptr noundef nonnull align 1 dereferenceable(1) %1, ptr noundef nonnull align 8 dereferenceable(8) %18) #7
  br label %20

20:                                               ; preds = %19, %12
  %21 = load i1, ptr %4, align 1
  br i1 %21, label %22, label %29

22:                                               ; preds = %20
  call void @_ZN6google15LogMessageFatalD1Ev(ptr noundef nonnull align 8 dereferenceable(96) %2) #22
  unreachable

23:                                               ; preds = %17, %15, %13
  %24 = landingpad { ptr, i32 }
          cleanup
  %25 = extractvalue { ptr, i32 } %24, 0
  store ptr %25, ptr %5, align 8
  %26 = extractvalue { ptr, i32 } %24, 1
  store i32 %26, ptr %6, align 4
  %27 = load i1, ptr %4, align 1
  br i1 %27, label %33, label %36

28:                                               ; No predecessors!
  br label %29

29:                                               ; preds = %28, %20
  %30 = load i1, ptr %3, align 1
  br i1 %30, label %31, label %32

31:                                               ; preds = %29
  call void @llvm.lifetime.end.p0(i64 96, ptr %2) #7
  br label %32

32:                                               ; preds = %31, %29
  call void @llvm.lifetime.end.p0(i64 1, ptr %1) #7
  store ptr null, ptr @_ZN6googleL31g_program_invocation_short_nameE, align 8, !tbaa !9
  call void @closelog()
  ret void

33:                                               ; preds = %23
  invoke void @_ZN6google15LogMessageFatalD1Ev(ptr noundef nonnull align 8 dereferenceable(96) %2) #22
          to label %34 unwind label %45

34:                                               ; preds = %33
  unreachable

35:                                               ; No predecessors!
  br label %36

36:                                               ; preds = %35, %23
  %37 = load i1, ptr %3, align 1
  br i1 %37, label %38, label %39

38:                                               ; preds = %36
  call void @llvm.lifetime.end.p0(i64 96, ptr %2) #7
  br label %39

39:                                               ; preds = %38, %36
  call void @llvm.lifetime.end.p0(i64 1, ptr %1) #7
  br label %40

40:                                               ; preds = %39
  %41 = load ptr, ptr %5, align 8
  %42 = load i32, ptr %6, align 4
  %43 = insertvalue { ptr, i32 } poison, ptr %41, 0
  %44 = insertvalue { ptr, i32 } %43, i32 %42, 1
  resume { ptr, i32 } %44

45:                                               ; preds = %33
  %46 = landingpad { ptr, i32 }
          catch ptr null
  %47 = extractvalue { ptr, i32 } %46, 0
  call void @__clang_call_terminate(ptr %47) #21
  unreachable
}