; Function Attrs: mustprogress uwtable
define hidden void @_ZN6google24glog_internal_namespace_30ShutdownGoogleLoggingUtilitiesEv() local_unnamed_addr #0 personality ptr @__gxx_personality_v0 {
  %1 = alloca %"class.google::LogMessageFatal", align 8
  %2 = load ptr, ptr @_ZN6googleL31g_program_invocation_short_nameE, align 8, !tbaa !39
  %.not = icmp eq ptr %2, null
  br i1 %.not, label %3, label %.critedge, !prof !51

3:                                                ; preds = %0
  call void @llvm.lifetime.start.p0(i64 96, ptr nonnull %1) #26
  call void @_ZN6google15LogMessageFatalC1EPKci(ptr noundef nonnull align 8 dereferenceable(96) %1, ptr noundef nonnull @.str.3, i32 noundef 310)
  %4 = invoke noundef nonnull align 8 dereferenceable(8) ptr @_ZN6google10LogMessage6streamEv(ptr noundef nonnull align 8 dereferenceable(96) %1)
          to label %5 unwind label %8

5:                                                ; preds = %3
  %6 = invoke noundef nonnull align 8 dereferenceable(8) ptr @_ZSt16__ostream_insertIcSt11char_traitsIcEERSt13basic_ostreamIT_T0_ES6_PKS3_l(ptr noundef nonnull align 8 dereferenceable(8) %4, ptr noundef nonnull @.str.6, i64 noundef 43)
          to label %_ZStlsISt11char_traitsIcEERSt13basic_ostreamIcT_ES5_PKc.exit unwind label %8

_ZStlsISt11char_traitsIcEERSt13basic_ostreamIcT_ES5_PKc.exit: ; preds = %5
  %7 = invoke noundef nonnull align 8 dereferenceable(8) ptr @_ZSt16__ostream_insertIcSt11char_traitsIcEERSt13basic_ostreamIT_T0_ES6_PKS3_l(ptr noundef nonnull align 8 dereferenceable(8) %4, ptr noundef nonnull @.str.7, i64 noundef 77)
          to label %_ZStlsISt11char_traitsIcEERSt13basic_ostreamIcT_ES5_PKc.exit6 unwind label %8

_ZStlsISt11char_traitsIcEERSt13basic_ostreamIcT_ES5_PKc.exit6: ; preds = %_ZStlsISt11char_traitsIcEERSt13basic_ostreamIcT_ES5_PKc.exit
  call void @_ZN6google15LogMessageFatalD1Ev(ptr noundef nonnull align 8 dereferenceable(96) %1) #28
  unreachable

8:                                                ; preds = %_ZStlsISt11char_traitsIcEERSt13basic_ostreamIcT_ES5_PKc.exit, %5, %3
  %9 = landingpad { ptr, i32 }
          cleanup
  invoke void @_ZN6google15LogMessageFatalD1Ev(ptr noundef nonnull align 8 dereferenceable(96) %1) #28
          to label %10 unwind label %11

.critedge:                                        ; preds = %0
  store ptr null, ptr @_ZN6googleL31g_program_invocation_short_nameE, align 8, !tbaa !39
  tail call void @closelog()
  ret void

10:                                               ; preds = %8
  unreachable

11:                                               ; preds = %8
  %12 = landingpad { ptr, i32 }
          catch ptr null
  %13 = extractvalue { ptr, i32 } %12, 0
  call void @__clang_call_terminate(ptr %13) #29
  unreachable
}